target datalayout = "e-m:e-p270:32:32-p271:32:32-p272:64:64-i64:64-i128:128-f80:128-n8:16:32:64-S128"
target triple = "x86_64-unknown-linux-gnu"

%struct.BlockDriverState = type { i32, i8, i8, i8, i8, i8, ptr, ptr, ptr, %struct.anon, i8, [4096 x i8], [4096 x i8], [4096 x i8], [16 x i8], ptr, [4096 x i8], %struct.BlockLimits, i32, i32, i32, i32, [32 x i8], %union.anon, %union.anon.0, %union.anon.1, i32, [16 x %struct.anon.2], ptr, %struct.anon.3, ptr, ptr, %struct.anon.4, ptr, ptr, i32, ptr, i64, i64, %struct.QemuMutex, %struct.anon.5, %struct.Stat64, i32, i32, i32, i32, i32, i32, %struct.QemuMutex, %struct.anon.6, %struct.CoQueue, i8, i32, i8, %struct.CoMutex, ptr, ptr }
%struct.anon = type { ptr }
%struct.BlockLimits = type { i32, i64, i32, i64, i32, i32, i32, i64, i32, i64, i64, i32, i8, i32, i32, i32, i32, i32, i32, i32 }
%union.anon = type { %struct.QTailQLink }
%struct.QTailQLink = type { ptr, ptr }
%union.anon.0 = type { %struct.QTailQLink }
%union.anon.1 = type { %struct.QTailQLink }
%struct.anon.2 = type { ptr }
%struct.anon.3 = type { ptr }
%struct.anon.4 = type { ptr }
%struct.anon.5 = type { ptr }
%struct.Stat64 = type { i64 }
%struct.QemuMutex = type { %union.pthread_mutex_t, i8 }
%union.pthread_mutex_t = type { %struct.__pthread_mutex_s }
%struct.__pthread_mutex_s = type { i32, i32, i32, i32, i32, i16, i16, %struct.__pthread_internal_list }
%struct.__pthread_internal_list = type { ptr, ptr }
%struct.anon.6 = type { ptr }
%struct.CoQueue = type { %struct.anon.7 }
%struct.anon.7 = type { ptr, ptr }
%struct.CoMutex = type { i32, ptr, %struct.anon.8, %struct.anon.8, i32, i32, ptr }
%struct.anon.8 = type { ptr }
%struct.BDRVQcow2State = type { i32, i32, i32, i32, i32, i32, i32, i32, i32, i32, i32, i32, i32, i32, i64, i64, ptr, ptr, ptr, ptr, i32, %struct.anon.9, ptr, i64, i32, i32, i64, i64, %struct.CoMutex, %struct.Qcow2CryptoHeaderExtension, ptr, ptr, i8, i32, i64, i32, i32, ptr, i32, i64, i64, i32, i32, i8, i32, i32, i64, ptr, ptr, [5 x i8], i8, i32, i8, i64, i64, i64, i64, ptr, %struct.anon.10, %union.anon.11, i8, ptr, ptr, ptr, %struct.CoQueue, i32, ptr, i8, i8, i32 }
%struct.anon.9 = type { ptr }
%struct.Qcow2CryptoHeaderExtension = type { i64, i64 }
%struct.anon.10 = type { ptr }
%union.anon.11 = type { %struct.QTailQLink }
%struct.BdrvChild = type { ptr, ptr, ptr, i32, ptr, i64, i64, i8, i8, %struct.anon.12, %struct.anon.13 }
%struct.anon.12 = type { ptr, ptr }
%struct.anon.13 = type { ptr, ptr }

@.str.2 = private unnamed_addr constant [30 x i8] c"../qemu/block/qcow2-cluster.c\00", align 1
@.str.9 = private unnamed_addr constant [60 x i8] c"(cluster_offset & s->cluster_offset_mask) == cluster_offset\00", align 1
@__PRETTY_FUNCTION__.qcow2_alloc_compressed_cluster_offset = private unnamed_addr constant [89 x i8] c"int qcow2_alloc_compressed_cluster_offset(BlockDriverState *, uint64_t, int, uint64_t *)\00", align 1
@.str.10 = private unnamed_addr constant [45 x i8] c"(nb_csectors & s->csize_mask) == nb_csectors\00", align 1
@.str.30 = private unnamed_addr constant [22 x i8] c"../qemu/block/qcow2.h\00", align 1
@.str.46 = private unnamed_addr constant [19 x i8] c"has_subclusters(s)\00", align 1
@__PRETTY_FUNCTION__.set_l2_bitmap = private unnamed_addr constant [64 x i8] c"void set_l2_bitmap(BDRVQcow2State *, uint64_t *, int, uint64_t)\00", align 1

; Function Attrs: nounwind sspstrong uwtable
define internal i64 @cpu_to_be64(i64 noundef %v) #0 {
entry:
  %v.addr = alloca i64, align 8
  store i64 %v, ptr %v.addr, align 8
  %0 = load i64, ptr %v.addr, align 8
  %1 = call i64 @llvm.bswap.i64(i64 %0)
  ret i64 %1
}

; Function Attrs: nounwind sspstrong uwtable
define internal i64 @be64_to_cpu(i64 noundef %v) #0 {
entry:
  %v.addr = alloca i64, align 8
  store i64 %v, ptr %v.addr, align 8
  %0 = load i64, ptr %v.addr, align 8
  %1 = call i64 @llvm.bswap.i64(i64 %0)
  ret i64 %1
}

; Function Attrs: nounwind sspstrong uwtable
define internal i64 @l2_entry_size(ptr noundef %s) #0 {
entry:
  %s.addr = alloca ptr, align 8
  store ptr %s, ptr %s.addr, align 8
  %0 = load ptr, ptr %s.addr, align 8
  %call = call zeroext i1 @has_subclusters(ptr noundef %0)
  %cond = select i1 %call, i64 16, i64 8
  ret i64 %cond
}

; Function Attrs: nounwind sspstrong uwtable
define internal void @set_l2_bitmap(ptr noundef %s, ptr noundef %l2_slice, i32 noundef %idx, i64 noundef %bitmap) #0 {
entry:
  %s.addr = alloca ptr, align 8
  %l2_slice.addr = alloca ptr, align 8
  %idx.addr = alloca i32, align 4
  %bitmap.addr = alloca i64, align 8
  store ptr %s, ptr %s.addr, align 8
  store ptr %l2_slice, ptr %l2_slice.addr, align 8
  store i32 %idx, ptr %idx.addr, align 4
  store i64 %bitmap, ptr %bitmap.addr, align 8
  %0 = load ptr, ptr %s.addr, align 8
  %call = call zeroext i1 @has_subclusters(ptr noundef %0)
  br i1 %call, label %if.then, label %if.else

if.then:                                          ; preds = %entry
  br label %if.end

if.else:                                          ; preds = %entry
  call void @__assert_fail(ptr noundef @.str.46, ptr noundef @.str.30, i32 noundef 639, ptr noundef @__PRETTY_FUNCTION__.set_l2_bitmap) #12
  unreachable

if.end:                                           ; preds = %if.then
  %1 = load ptr, ptr %s.addr, align 8
  %call1 = call i64 @l2_entry_size(ptr noundef %1)
  %div = udiv i64 %call1, 8
  %2 = load i32, ptr %idx.addr, align 4
  %conv = sext i32 %2 to i64
  %mul = mul i64 %conv, %div
  %conv2 = trunc i64 %mul to i32
  store i32 %conv2, ptr %idx.addr, align 4
  %3 = load i64, ptr %bitmap.addr, align 8
  %call3 = call i64 @cpu_to_be64(i64 noundef %3)
  %4 = load ptr, ptr %l2_slice.addr, align 8
  %5 = load i32, ptr %idx.addr, align 4
  %add = add i32 %5, 1
  %idxprom = sext i32 %add to i64
  %arrayidx = getelementptr i64, ptr %4, i64 %idxprom
  store i64 %call3, ptr %arrayidx, align 8
  ret void
}

; Function Attrs: nounwind sspstrong uwtable
define internal zeroext i1 @has_subclusters(ptr noundef %s) #0 {
entry:
  %s.addr = alloca ptr, align 8
  store ptr %s, ptr %s.addr, align 8
  %0 = load ptr, ptr %s.addr, align 8
  %incompatible_features = getelementptr inbounds %struct.BDRVQcow2State, ptr %0, i32 0, i32 53
  %1 = load i64, ptr %incompatible_features, align 8
  %and = and i64 %1, 16
  %tobool = icmp ne i64 %and, 0
  ret i1 %tobool
}

; Function Attrs: nounwind sspstrong uwtable
define internal void @set_l2_entry(ptr noundef %s, ptr noundef %l2_slice, i32 noundef %idx, i64 noundef %entry1) #0 {
entry:
  %s.addr = alloca ptr, align 8
  %l2_slice.addr = alloca ptr, align 8
  %idx.addr = alloca i32, align 4
  %entry.addr = alloca i64, align 8
  store ptr %s, ptr %s.addr, align 8
  store ptr %l2_slice, ptr %l2_slice.addr, align 8
  store i32 %idx, ptr %idx.addr, align 4
  store i64 %entry1, ptr %entry.addr, align 8
  %0 = load ptr, ptr %s.addr, align 8
  %call = call i64 @l2_entry_size(ptr noundef %0)
  %div = udiv i64 %call, 8
  %1 = load i32, ptr %idx.addr, align 4
  %conv = sext i32 %1 to i64
  %mul = mul i64 %conv, %div
  %conv2 = trunc i64 %mul to i32
  store i32 %conv2, ptr %idx.addr, align 4
  %2 = load i64, ptr %entry.addr, align 8
  %call3 = call i64 @cpu_to_be64(i64 noundef %2)
  %3 = load ptr, ptr %l2_slice.addr, align 8
  %4 = load i32, ptr %idx.addr, align 4
  %idxprom = sext i32 %4 to i64
  %arrayidx = getelementptr i64, ptr %3, i64 %idxprom
  store i64 %call3, ptr %arrayidx, align 8
  ret void
}

; Function Attrs: nounwind sspstrong uwtable
define internal i64 @get_l2_entry(ptr noundef %s, ptr noundef %l2_slice, i32 noundef %idx) #0 {
entry:
  %s.addr = alloca ptr, align 8
  %l2_slice.addr = alloca ptr, align 8
  %idx.addr = alloca i32, align 4
  store ptr %s, ptr %s.addr, align 8
  store ptr %l2_slice, ptr %l2_slice.addr, align 8
  store i32 %idx, ptr %idx.addr, align 4
  %0 = load ptr, ptr %s.addr, align 8
  %call = call i64 @l2_entry_size(ptr noundef %0)
  %div = udiv i64 %call, 8
  %1 = load i32, ptr %idx.addr, align 4
  %conv = sext i32 %1 to i64
  %mul = mul i64 %conv, %div
  %conv1 = trunc i64 %mul to i32
  store i32 %conv1, ptr %idx.addr, align 4
  %2 = load ptr, ptr %l2_slice.addr, align 8
  %3 = load i32, ptr %idx.addr, align 4
  %idxprom = sext i32 %3 to i64
  %arrayidx = getelementptr i64, ptr %2, i64 %idxprom
  %4 = load i64, ptr %arrayidx, align 8
  %call2 = call i64 @be64_to_cpu(i64 noundef %4)
  ret i64 %call2
}

; Function Attrs: nounwind sspstrong uwtable
define internal zeroext i1 @has_data_file(ptr noundef %bs) #0 {
entry:
  %bs.addr = alloca ptr, align 8
  %s = alloca ptr, align 8
  store ptr %bs, ptr %bs.addr, align 8
  %0 = load ptr, ptr %bs.addr, align 8
  %opaque = getelementptr inbounds %struct.BlockDriverState, ptr %0, i32 0, i32 7
  %1 = load ptr, ptr %opaque, align 8
  store ptr %1, ptr %s, align 8
  %2 = load ptr, ptr %s, align 8
  %data_file = getelementptr inbounds %struct.BDRVQcow2State, ptr %2, i32 0, i32 66
  %3 = load ptr, ptr %data_file, align 8
  %4 = load ptr, ptr %bs.addr, align 8
  %file = getelementptr inbounds %struct.BlockDriverState, ptr %4, i32 0, i32 31
  %5 = load ptr, ptr %file, align 8
  %cmp = icmp ne ptr %3, %5
  ret i1 %cmp
}

; Function Attrs: nounwind sspstrong uwtable
define dso_local i32 @qcow2_alloc_compressed_cluster_offset(ptr noundef %bs, i64 noundef %offset, i32 noundef %compressed_size, ptr noundef %host_offset) #0 {
entry:
  %retval = alloca i32, align 4
  %bs.addr = alloca ptr, align 8
  %offset.addr = alloca i64, align 8
  %compressed_size.addr = alloca i32, align 4
  %host_offset.addr = alloca ptr, align 8
  %s = alloca ptr, align 8
  %l2_index = alloca i32, align 4
  %ret = alloca i32, align 4
  %l2_slice = alloca ptr, align 8
  %cluster_offset = alloca i64, align 8
  %nb_csectors = alloca i32, align 4
  store ptr %bs, ptr %bs.addr, align 8
  store i64 %offset, ptr %offset.addr, align 8
  store i32 %compressed_size, ptr %compressed_size.addr, align 4
  store ptr %host_offset, ptr %host_offset.addr, align 8
  %0 = load ptr, ptr %bs.addr, align 8
  %opaque = getelementptr inbounds %struct.BlockDriverState, ptr %0, i32 0, i32 7
  %1 = load ptr, ptr %opaque, align 8
  store ptr %1, ptr %s, align 8
  %2 = load ptr, ptr %bs.addr, align 8
  %call = call zeroext i1 @has_data_file(ptr noundef %2)
  br i1 %call, label %if.then, label %if.end

if.then:                                          ; preds = %entry
  store i32 0, ptr %retval, align 4
  br label %return

if.end:                                           ; preds = %entry
  %3 = load ptr, ptr %bs.addr, align 8
  %4 = load i64, ptr %offset.addr, align 8
  %call1 = call i32 @get_cluster_table(ptr noundef %3, i64 noundef %4, ptr noundef %l2_slice, ptr noundef %l2_index)
  store i32 %call1, ptr %ret, align 4
  %5 = load i32, ptr %ret, align 4
  %cmp = icmp slt i32 %5, 0
  br i1 %cmp, label %if.then2, label %if.end3

if.then2:                                         ; preds = %if.end
  %6 = load i32, ptr %ret, align 4
  store i32 %6, ptr %retval, align 4
  br label %return

if.end3:                                          ; preds = %if.end
  %7 = load ptr, ptr %s, align 8
  %8 = load ptr, ptr %l2_slice, align 8
  %9 = load i32, ptr %l2_index, align 4
  %call4 = call i64 @get_l2_entry(ptr noundef %7, ptr noundef %8, i32 noundef %9)
  store i64 %call4, ptr %cluster_offset, align 8
  %10 = load i64, ptr %cluster_offset, align 8
  %and = and i64 %10, 72057594037927424
  %tobool = icmp ne i64 %and, 0
  br i1 %tobool, label %if.then5, label %if.end6

if.then5:                                         ; preds = %if.end3
  %11 = load ptr, ptr %s, align 8
  %l2_table_cache = getelementptr inbounds %struct.BDRVQcow2State, ptr %11, i32 0, i32 17
  %12 = load ptr, ptr %l2_table_cache, align 8
  call void @qcow2_cache_put(ptr noundef %12, ptr noundef %l2_slice)
  store i32 -5, ptr %retval, align 4
  br label %return

if.end6:                                          ; preds = %if.end3
  %13 = load ptr, ptr %bs.addr, align 8
  %14 = load i32, ptr %compressed_size.addr, align 4
  %call7 = call i64 @qcow2_alloc_bytes(ptr noundef %13, i32 noundef %14)
  store i64 %call7, ptr %cluster_offset, align 8
  %15 = load i64, ptr %cluster_offset, align 8
  %cmp8 = icmp slt i64 %15, 0
  br i1 %cmp8, label %if.then9, label %if.end11

if.then9:                                         ; preds = %if.end6
  %16 = load ptr, ptr %s, align 8
  %l2_table_cache10 = getelementptr inbounds %struct.BDRVQcow2State, ptr %16, i32 0, i32 17
  %17 = load ptr, ptr %l2_table_cache10, align 8
  call void @qcow2_cache_put(ptr noundef %17, ptr noundef %l2_slice)
  %18 = load i64, ptr %cluster_offset, align 8
  %conv = trunc i64 %18 to i32
  store i32 %conv, ptr %retval, align 4
  br label %return

if.end11:                                         ; preds = %if.end6
  %19 = load i64, ptr %cluster_offset, align 8
  %20 = load i32, ptr %compressed_size.addr, align 4
  %conv12 = sext i32 %20 to i64
  %add = add i64 %19, %conv12
  %sub = sub i64 %add, 1
  %div = sdiv i64 %sub, 512
  %21 = load i64, ptr %cluster_offset, align 8
  %div13 = sdiv i64 %21, 512
  %sub14 = sub i64 %div, %div13
  %conv15 = trunc i64 %sub14 to i32
  store i32 %conv15, ptr %nb_csectors, align 4
  %22 = load i64, ptr %cluster_offset, align 8
  %23 = load ptr, ptr %s, align 8
  %cluster_offset_mask = getelementptr inbounds %struct.BDRVQcow2State, ptr %23, i32 0, i32 14
  %24 = load i64, ptr %cluster_offset_mask, align 8
  %and16 = and i64 %22, %24
  %25 = load i64, ptr %cluster_offset, align 8
  %cmp17 = icmp eq i64 %and16, %25
  br i1 %cmp17, label %if.then19, label %if.else

if.then19:                                        ; preds = %if.end11
  br label %if.end20

if.else:                                          ; preds = %if.end11
  call void @__assert_fail(ptr noundef @.str.9, ptr noundef @.str.2, i32 noundef 865, ptr noundef @__PRETTY_FUNCTION__.qcow2_alloc_compressed_cluster_offset) #12
  unreachable

if.end20:                                         ; preds = %if.then19
  %26 = load i32, ptr %nb_csectors, align 4
  %27 = load ptr, ptr %s, align 8
  %csize_mask = getelementptr inbounds %struct.BDRVQcow2State, ptr %27, i32 0, i32 13
  %28 = load i32, ptr %csize_mask, align 4
  %and21 = and i32 %26, %28
  %29 = load i32, ptr %nb_csectors, align 4
  %cmp22 = icmp eq i32 %and21, %29
  br i1 %cmp22, label %if.then24, label %if.else25

if.then24:                                        ; preds = %if.end20
  br label %if.end26

if.else25:                                        ; preds = %if.end20
  call void @__assert_fail(ptr noundef @.str.10, ptr noundef @.str.2, i32 noundef 866, ptr noundef @__PRETTY_FUNCTION__.qcow2_alloc_compressed_cluster_offset) #12
  unreachable

if.end26:                                         ; preds = %if.then24
  %30 = load i32, ptr %nb_csectors, align 4
  %conv27 = sext i32 %30 to i64
  %31 = load ptr, ptr %s, align 8
  %csize_shift = getelementptr inbounds %struct.BDRVQcow2State, ptr %31, i32 0, i32 12
  %32 = load i32, ptr %csize_shift, align 8
  %sh_prom = zext i32 %32 to i64
  %shl = shl i64 %conv27, %sh_prom
  %or = or i64 4611686018427387904, %shl
  %33 = load i64, ptr %cluster_offset, align 8
  %or28 = or i64 %33, %or
  store i64 %or28, ptr %cluster_offset, align 8
  br label %do.body

do.body:                                          ; preds = %if.end26
  %34 = load ptr, ptr %bs.addr, align 8
  %file = getelementptr inbounds %struct.BlockDriverState, ptr %34, i32 0, i32 31
  %35 = load ptr, ptr %file, align 8
  %tobool29 = icmp ne ptr %35, null
  br i1 %tobool29, label %if.then30, label %if.end33

if.then30:                                        ; preds = %do.body
  %36 = load ptr, ptr %bs.addr, align 8
  %file31 = getelementptr inbounds %struct.BlockDriverState, ptr %36, i32 0, i32 31
  %37 = load ptr, ptr %file31, align 8
  %bs32 = getelementptr inbounds %struct.BdrvChild, ptr %37, i32 0, i32 0
  %38 = load ptr, ptr %bs32, align 8
  call void @bdrv_co_debug_event(ptr noundef %38, i32 noundef 6)
  br label %if.end33

if.end33:                                         ; preds = %if.then30, %do.body
  br label %do.end

do.end:                                           ; preds = %if.end33
  %39 = load ptr, ptr %s, align 8
  %l2_table_cache34 = getelementptr inbounds %struct.BDRVQcow2State, ptr %39, i32 0, i32 17
  %40 = load ptr, ptr %l2_table_cache34, align 8
  %41 = load ptr, ptr %l2_slice, align 8
  call void @qcow2_cache_entry_mark_dirty(ptr noundef %40, ptr noundef %41)
  %42 = load ptr, ptr %s, align 8
  %43 = load ptr, ptr %l2_slice, align 8
  %44 = load i32, ptr %l2_index, align 4
  %45 = load i64, ptr %cluster_offset, align 8
  call void @set_l2_entry(ptr noundef %42, ptr noundef %43, i32 noundef %44, i64 noundef %45)
  %46 = load ptr, ptr %s, align 8
  %call35 = call zeroext i1 @has_subclusters(ptr noundef %46)
  br i1 %call35, label %if.then36, label %if.end37

if.then36:                                        ; preds = %do.end
  %47 = load ptr, ptr %s, align 8
  %48 = load ptr, ptr %l2_slice, align 8
  %49 = load i32, ptr %l2_index, align 4
  call void @set_l2_bitmap(ptr noundef %47, ptr noundef %48, i32 noundef %49, i64 noundef 0)
  br label %if.end37

if.end37:                                         ; preds = %if.then36, %do.end
  %50 = load ptr, ptr %s, align 8
  %l2_table_cache38 = getelementptr inbounds %struct.BDRVQcow2State, ptr %50, i32 0, i32 17
  %51 = load ptr, ptr %l2_table_cache38, align 8
  call void @qcow2_cache_put(ptr noundef %51, ptr noundef %l2_slice)
  %52 = load i64, ptr %cluster_offset, align 8
  %53 = load ptr, ptr %s, align 8
  %cluster_offset_mask39 = getelementptr inbounds %struct.BDRVQcow2State, ptr %53, i32 0, i32 14
  %54 = load i64, ptr %cluster_offset_mask39, align 8
  %and40 = and i64 %52, %54
  %55 = load ptr, ptr %host_offset.addr, align 8
  store i64 %and40, ptr %55, align 8
  store i32 0, ptr %retval, align 4
  br label %return

return:                                           ; preds = %if.end37, %if.then9, %if.then5, %if.then2, %if.then
  %56 = load i32, ptr %retval, align 4
  ret i32 %56
}