; Function Attrs: nounwind sspstrong uwtable
define dso_local i32 @qcow2_alloc_compressed_cluster_offset(ptr noundef %bs, i64 noundef %offset, i32 noundef %compressed_size, ptr noundef writeonly captures(none) %host_offset) #0 {
entry:
  %l2_index = alloca i32, align 4
  %l2_slice = alloca ptr, align 8
  %opaque = getelementptr inbounds nuw i8, ptr %bs, i64 24
  %0 = load ptr, ptr %opaque, align 8
  %1 = getelementptr i8, ptr %bs, i64 16840
  %bs.val32 = load ptr, ptr %1, align 8
  %2 = getelementptr i8, ptr %0, i64 480
  %bs.val.val = load ptr, ptr %2, align 8
  %cmp.i.not = icmp eq ptr %bs.val.val, %bs.val32
  br i1 %cmp.i.not, label %if.end, label %return

if.end:                                           ; preds = %entry
  %call1 = call fastcc i32 @get_cluster_table(ptr noundef nonnull %bs, i64 noundef %offset, ptr noundef %l2_slice, ptr noundef %l2_index)
  %cmp = icmp slt i32 %call1, 0
  br i1 %cmp, label %return, label %if.end3

if.end3:                                          ; preds = %if.end
  %3 = load ptr, ptr %l2_slice, align 8
  %4 = load i32, ptr %l2_index, align 4
  %5 = getelementptr i8, ptr %0, i64 360
  %.val31 = load i64, ptr %5, align 8
  %6 = trunc i64 %.val31 to i32
  %7 = lshr i32 %6, 4
  %8 = and i32 %7, 1
  %conv1.i = shl i32 %4, %8
  %idxprom.i = sext i32 %conv1.i to i64
  %arrayidx.i = getelementptr i64, ptr %3, i64 %idxprom.i
  %9 = load i64, ptr %arrayidx.i, align 8
  %10 = and i64 %9, 71776119061217024
  %tobool.not = icmp eq i64 %10, 0
  br i1 %tobool.not, label %if.end6, label %if.then5

if.then5:                                         ; preds = %if.end3
  %l2_table_cache = getelementptr inbounds nuw i8, ptr %0, i64 80
  %11 = load ptr, ptr %l2_table_cache, align 8
  call void @qcow2_cache_put(ptr noundef %11, ptr noundef nonnull %l2_slice) #13
  br label %return

if.end6:                                          ; preds = %if.end3
  %call7 = tail call i64 @qcow2_alloc_bytes(ptr noundef nonnull %bs, i32 noundef %compressed_size) #13
  %cmp8 = icmp slt i64 %call7, 0
  br i1 %cmp8, label %if.then9, label %if.end11

if.then9:                                         ; preds = %if.end6
  %l2_table_cache10 = getelementptr inbounds nuw i8, ptr %0, i64 80
  %12 = load ptr, ptr %l2_table_cache10, align 8
  call void @qcow2_cache_put(ptr noundef %12, ptr noundef nonnull %l2_slice) #13
  %conv = trunc i64 %call7 to i32
  br label %return

if.end11:                                         ; preds = %if.end6
  %conv12 = sext i32 %compressed_size to i64
  %add = add nsw i64 %conv12, -1
  %sub = add i64 %add, %call7
  %div = sdiv i64 %sub, 512
  %div1330 = lshr i64 %call7, 9
  %sub14 = sub nsw i64 %div, %div1330
  %cluster_offset_mask = getelementptr inbounds nuw i8, ptr %0, i64 56
  %13 = load i64, ptr %cluster_offset_mask, align 8
  %and16 = and i64 %13, %call7
  %cmp17 = icmp eq i64 %and16, %call7
  br i1 %cmp17, label %if.end20, label %if.else

if.else:                                          ; preds = %if.end11
  tail call void @__assert_fail(ptr noundef nonnull @.str.9, ptr noundef nonnull @.str.2, i32 noundef 865, ptr noundef nonnull @__PRETTY_FUNCTION__.qcow2_alloc_compressed_cluster_offset) #15
  unreachable

if.end20:                                         ; preds = %if.end11
  %conv15 = trunc i64 %sub14 to i32
  %csize_mask = getelementptr inbounds nuw i8, ptr %0, i64 52
  %14 = load i32, ptr %csize_mask, align 4
  %and21 = and i32 %14, %conv15
  %cmp22 = icmp eq i32 %and21, %conv15
  br i1 %cmp22, label %if.end26, label %if.else25

if.else25:                                        ; preds = %if.end20
  tail call void @__assert_fail(ptr noundef nonnull @.str.10, ptr noundef nonnull @.str.2, i32 noundef 866, ptr noundef nonnull @__PRETTY_FUNCTION__.qcow2_alloc_compressed_cluster_offset) #15
  unreachable

if.end26:                                         ; preds = %if.end20
  %sext = shl i64 %sub14, 32
  %conv27 = ashr exact i64 %sext, 32
  %csize_shift = getelementptr inbounds nuw i8, ptr %0, i64 48
  %15 = load i32, ptr %csize_shift, align 8
  %sh_prom = zext nneg i32 %15 to i64
  %shl = shl i64 %conv27, %sh_prom
  %or = or i64 %call7, %shl
  %or28 = or i64 %or, 4611686018427387904
  %16 = load ptr, ptr %1, align 8
  %tobool29.not = icmp eq ptr %16, null
  br i1 %tobool29.not, label %do.end, label %if.then30

if.then30:                                        ; preds = %if.end26
  %17 = load ptr, ptr %16, align 8
  tail call void @bdrv_co_debug_event(ptr noundef %17, i32 noundef 6) #13
  br label %do.end

do.end:                                           ; preds = %if.end26, %if.then30
  %l2_table_cache34 = getelementptr inbounds nuw i8, ptr %0, i64 80
  %18 = load ptr, ptr %l2_table_cache34, align 8
  tail call void @qcow2_cache_entry_mark_dirty(ptr noundef %18, ptr noundef nonnull %3) #13
  %.val33 = load i64, ptr %5, align 8
  %19 = trunc i64 %.val33 to i32
  %20 = lshr i32 %19, 4
  %21 = and i32 %20, 1
  %conv2.i = shl i32 %4, %21
  %22 = tail call noundef i64 @llvm.bswap.i64(i64 %or28)
  %idxprom.i35 = sext i32 %conv2.i to i64
  %arrayidx.i36 = getelementptr i64, ptr %3, i64 %idxprom.i35
  store i64 %22, ptr %arrayidx.i36, align 8
  %.val = load i64, ptr %5, align 8
  %and.i = and i64 %.val, 16
  %tobool.i.not = icmp eq i64 %and.i, 0
  br i1 %tobool.i.not, label %if.end37, label %set_l2_bitmap.exit

set_l2_bitmap.exit:                               ; preds = %do.end
  %conv2.i37 = shl i32 %4, 1
  %add.i = or disjoint i32 %conv2.i37, 1
  %idxprom.i38 = sext i32 %add.i to i64
  %arrayidx.i39 = getelementptr i64, ptr %3, i64 %idxprom.i38
  store i64 0, ptr %arrayidx.i39, align 8
  br label %if.end37

if.end37:                                         ; preds = %set_l2_bitmap.exit, %do.end
  %23 = load ptr, ptr %l2_table_cache34, align 8
  call void @qcow2_cache_put(ptr noundef %23, ptr noundef nonnull %l2_slice) #13
  %24 = load i64, ptr %cluster_offset_mask, align 8
  %and40 = and i64 %24, %or28
  store i64 %and40, ptr %host_offset, align 8
  br label %return

return:                                           ; preds = %if.end, %entry, %if.end37, %if.then9, %if.then5
  %retval.0 = phi i32 [ -5, %if.then5 ], [ %conv, %if.then9 ], [ 0, %if.end37 ], [ 0, %entry ], [ %call1, %if.end ]
  ret i32 %retval.0
}